target datalayout = "e-m:e-p270:32:32-p271:32:32-p272:64:64-i64:64-i128:128-f80:128-n8:16:32:64-S128"
target triple = "x86_64-pc-linux-gnu"

%struct.H5O_loc_t = type { ptr, i64, i8 }
%struct.H5A_t = type { %struct.H5O_shared_t, %struct.H5O_loc_t, i8, %struct.H5G_name_t, ptr }
%struct.H5O_shared_t = type { i32, ptr, i32, %union.anon }
%union.anon = type { %struct.H5O_mesg_loc_t }
%struct.H5O_mesg_loc_t = type { i32, i64 }
%struct.H5G_name_t = type { ptr, ptr, i32 }
%struct.H5A_shared_t = type { i8, ptr, i32, ptr, i64, ptr, i64, ptr, i64, i32, i32 }

@.str.3 = private unnamed_addr constant [100 x i8] c"generated/home/dtcxzyw/WorkSpace/Projects/compilers/llvm-opt-benchmark/bench/hdf5/hdf5/src/H5Aint.c\00", align 1
@H5E_ATTR_g = external global i64, align 8
@H5E_CANTINIT_g = external global i64, align 8
@H5E_DATATYPE_g = external global i64, align 8
@.str.15 = private unnamed_addr constant [26 x i8] c"invalid datatype location\00", align 1
@H5E_ID_g = external global i64, align 8
@H5E_CANTREGISTER_g = external global i64, align 8
@H5E_CLOSEERROR_g = external global i64, align 8
@__func__.H5A__get_type = private unnamed_addr constant [14 x i8] c"H5A__get_type\00", align 1
@.str.42 = private unnamed_addr constant [40 x i8] c"unable to patch datatype's file pointer\00", align 1
@.str.43 = private unnamed_addr constant [24 x i8] c"unable to copy datatype\00", align 1
@.str.44 = private unnamed_addr constant [34 x i8] c"unable to lock transient datatype\00", align 1
@.str.45 = private unnamed_addr constant [31 x i8] c"unable to register file handle\00", align 1
@.str.46 = private unnamed_addr constant [28 x i8] c"unable to register datatype\00", align 1
@.str.47 = private unnamed_addr constant [27 x i8] c"unable to release datatype\00", align 1

; Function Attrs: nounwind uwtable
define i64 @H5A__get_type(ptr noundef %0) #0 {
  %2 = alloca ptr, align 8
  %3 = alloca ptr, align 8
  %4 = alloca i64, align 8
  %5 = alloca i8, align 1
  store ptr %0, ptr %2, align 8
  store ptr null, ptr %3, align 8
  store i64 -1, ptr %4, align 8
  store i8 0, ptr %5, align 1
  %6 = load ptr, ptr %2, align 8
  %7 = getelementptr inbounds %struct.H5A_t, ptr %6, i32 0, i32 4
  %8 = load ptr, ptr %7, align 8
  %9 = getelementptr inbounds %struct.H5A_shared_t, ptr %8, i32 0, i32 3
  %10 = load ptr, ptr %9, align 8
  %11 = load ptr, ptr %2, align 8
  %12 = getelementptr inbounds %struct.H5A_t, ptr %11, i32 0, i32 1
  %13 = getelementptr inbounds %struct.H5O_loc_t, ptr %12, i32 0, i32 0
  %14 = load ptr, ptr %13, align 8
  %15 = call i32 @H5T_patch_file(ptr noundef %10, ptr noundef %14)
  %16 = icmp slt i32 %15, 0
  br i1 %16, label %17, label %32

17:                                               ; preds = %1
  br label %18

18:                                               ; preds = %17
  br label %19

19:                                               ; preds = %18
  br label %20

20:                                               ; preds = %19
  %21 = load i64, ptr @H5E_ATTR_g, align 8
  %22 = load i64, ptr @H5E_CANTINIT_g, align 8
  %23 = call i32 (ptr, ptr, i32, i64, i64, ptr, ...) @H5E_printf_stack(ptr noundef @.str.3, ptr noundef @__func__.H5A__get_type, i32 noundef 1002, i64 noundef %21, i64 noundef %22, ptr noundef @.str.42)
  br label %24

24:                                               ; preds = %20
  store i8 1, ptr %5, align 1
  %25 = load i8, ptr %5, align 1
  %26 = trunc i8 %25 to i1
  %27 = zext i1 %26 to i8
  store i8 %27, ptr %5, align 1
  br label %28

28:                                               ; preds = %24
  br label %29

29:                                               ; preds = %28
  store i64 -1, ptr %4, align 8
  br label %138

30:                                               ; No predecessors!
  br label %31

31:                                               ; preds = %30
  br label %32

32:                                               ; preds = %31, %1
  %33 = load ptr, ptr %2, align 8
  %34 = getelementptr inbounds %struct.H5A_t, ptr %33, i32 0, i32 4
  %35 = load ptr, ptr %34, align 8
  %36 = getelementptr inbounds %struct.H5A_shared_t, ptr %35, i32 0, i32 3
  %37 = load ptr, ptr %36, align 8
  %38 = call ptr @H5T_copy_reopen(ptr noundef %37)
  store ptr %38, ptr %3, align 8
  %39 = icmp eq ptr null, %38
  br i1 %39, label %40, label %55

40:                                               ; preds = %32
  br label %41

41:                                               ; preds = %40
  br label %42

42:                                               ; preds = %41
  br label %43

43:                                               ; preds = %42
  %44 = load i64, ptr @H5E_ATTR_g, align 8
  %45 = load i64, ptr @H5E_CANTINIT_g, align 8
  %46 = call i32 (ptr, ptr, i32, i64, i64, ptr, ...) @H5E_printf_stack(ptr noundef @.str.3, ptr noundef @__func__.H5A__get_type, i32 noundef 1009, i64 noundef %44, i64 noundef %45, ptr noundef @.str.43)
  br label %47

47:                                               ; preds = %43
  store i8 1, ptr %5, align 1
  %48 = load i8, ptr %5, align 1
  %49 = trunc i8 %48 to i1
  %50 = zext i1 %49 to i8
  store i8 %50, ptr %5, align 1
  br label %51

51:                                               ; preds = %47
  br label %52

52:                                               ; preds = %51
  store i64 -1, ptr %4, align 8
  br label %138

53:                                               ; No predecessors!
  br label %54

54:                                               ; preds = %53
  br label %55

55:                                               ; preds = %54, %32
  %56 = load ptr, ptr %3, align 8
  %57 = call i32 @H5T_set_loc(ptr noundef %56, ptr noundef null, i32 noundef 1)
  %58 = icmp slt i32 %57, 0
  br i1 %58, label %59, label %74

59:                                               ; preds = %55
  br label %60

60:                                               ; preds = %59
  br label %61

61:                                               ; preds = %60
  br label %62

62:                                               ; preds = %61
  %63 = load i64, ptr @H5E_DATATYPE_g, align 8
  %64 = load i64, ptr @H5E_CANTINIT_g, align 8
  %65 = call i32 (ptr, ptr, i32, i64, i64, ptr, ...) @H5E_printf_stack(ptr noundef @.str.3, ptr noundef @__func__.H5A__get_type, i32 noundef 1013, i64 noundef %63, i64 noundef %64, ptr noundef @.str.15)
  br label %66

66:                                               ; preds = %62
  store i8 1, ptr %5, align 1
  %67 = load i8, ptr %5, align 1
  %68 = trunc i8 %67 to i1
  %69 = zext i1 %68 to i8
  store i8 %69, ptr %5, align 1
  br label %70

70:                                               ; preds = %66
  br label %71

71:                                               ; preds = %70
  store i64 -1, ptr %4, align 8
  br label %138

72:                                               ; No predecessors!
  br label %73

73:                                               ; preds = %72
  br label %74

74:                                               ; preds = %73, %55
  %75 = load ptr, ptr %3, align 8
  %76 = call i32 @H5T_lock(ptr noundef %75, i1 noundef zeroext false)
  %77 = icmp slt i32 %76, 0
  br i1 %77, label %78, label %93

78:                                               ; preds = %74
  br label %79

79:                                               ; preds = %78
  br label %80

80:                                               ; preds = %79
  br label %81

81:                                               ; preds = %80
  %82 = load i64, ptr @H5E_DATATYPE_g, align 8
  %83 = load i64, ptr @H5E_CANTINIT_g, align 8
  %84 = call i32 (ptr, ptr, i32, i64, i64, ptr, ...) @H5E_printf_stack(ptr noundef @.str.3, ptr noundef @__func__.H5A__get_type, i32 noundef 1017, i64 noundef %82, i64 noundef %83, ptr noundef @.str.44)
  br label %85

85:                                               ; preds = %81
  store i8 1, ptr %5, align 1
  %86 = load i8, ptr %5, align 1
  %87 = trunc i8 %86 to i1
  %88 = zext i1 %87 to i8
  store i8 %88, ptr %5, align 1
  br label %89

89:                                               ; preds = %85
  br label %90

90:                                               ; preds = %89
  store i64 -1, ptr %4, align 8
  br label %138

91:                                               ; No predecessors!
  br label %92

92:                                               ; preds = %91
  br label %93

93:                                               ; preds = %92, %74
  %94 = load ptr, ptr %3, align 8
  %95 = call i32 @H5T_is_named(ptr noundef %94)
  %96 = icmp ne i32 %95, 0
  br i1 %96, label %97, label %117

97:                                               ; preds = %93
  %98 = load ptr, ptr %3, align 8
  %99 = call i64 @H5VL_wrap_register(i32 noundef 3, ptr noundef %98, i1 noundef zeroext true)
  store i64 %99, ptr %4, align 8
  %100 = icmp slt i64 %99, 0
  br i1 %100, label %101, label %116

101:                                              ; preds = %97
  br label %102

102:                                              ; preds = %101
  br label %103

103:                                              ; preds = %102
  br label %104

104:                                              ; preds = %103
  %105 = load i64, ptr @H5E_ID_g, align 8
  %106 = load i64, ptr @H5E_CANTREGISTER_g, align 8
  %107 = call i32 (ptr, ptr, i32, i64, i64, ptr, ...) @H5E_printf_stack(ptr noundef @.str.3, ptr noundef @__func__.H5A__get_type, i32 noundef 1026, i64 noundef %105, i64 noundef %106, ptr noundef @.str.45)
  br label %108

108:                                              ; preds = %104
  store i8 1, ptr %5, align 1
  %109 = load i8, ptr %5, align 1
  %110 = trunc i8 %109 to i1
  %111 = zext i1 %110 to i8
  store i8 %111, ptr %5, align 1
  br label %112

112:                                              ; preds = %108
  br label %113

113:                                              ; preds = %112
  store i64 -1, ptr %4, align 8
  br label %138

114:                                              ; No predecessors!
  br label %115

115:                                              ; preds = %114
  br label %116

116:                                              ; preds = %115, %97
  br label %137

117:                                              ; preds = %93
  %118 = load ptr, ptr %3, align 8
  %119 = call i64 @H5I_register(i32 noundef 3, ptr noundef %118, i1 noundef zeroext true)
  store i64 %119, ptr %4, align 8
  %120 = icmp slt i64 %119, 0
  br i1 %120, label %121, label %136

121:                                              ; preds = %117
  br label %122

122:                                              ; preds = %121
  br label %123

123:                                              ; preds = %122
  br label %124

124:                                              ; preds = %123
  %125 = load i64, ptr @H5E_ID_g, align 8
  %126 = load i64, ptr @H5E_CANTREGISTER_g, align 8
  %127 = call i32 (ptr, ptr, i32, i64, i64, ptr, ...) @H5E_printf_stack(ptr noundef @.str.3, ptr noundef @__func__.H5A__get_type, i32 noundef 1030, i64 noundef %125, i64 noundef %126, ptr noundef @.str.46)
  br label %128

128:                                              ; preds = %124
  store i8 1, ptr %5, align 1
  %129 = load i8, ptr %5, align 1
  %130 = trunc i8 %129 to i1
  %131 = zext i1 %130 to i8
  store i8 %131, ptr %5, align 1
  br label %132

132:                                              ; preds = %128
  br label %133

133:                                              ; preds = %132
  store i64 -1, ptr %4, align 8
  br label %138

134:                                              ; No predecessors!
  br label %135

135:                                              ; preds = %134
  br label %136

136:                                              ; preds = %135, %117
  br label %137

137:                                              ; preds = %136, %116
  br label %138

138:                                              ; preds = %137, %133, %113, %90, %71, %52, %29
  %139 = load i64, ptr %4, align 8
  %140 = icmp eq i64 -1, %139
  br i1 %140, label %141, label %162

141:                                              ; preds = %138
  %142 = load ptr, ptr %3, align 8
  %143 = icmp ne ptr %142, null
  br i1 %143, label %144, label %161

144:                                              ; preds = %141
  %145 = load ptr, ptr %3, align 8
  %146 = call i32 @H5T_close(ptr noundef %145)
  %147 = icmp slt i32 %146, 0
  br i1 %147, label %148, label %161

148:                                              ; preds = %144
  br label %149

149:                                              ; preds = %148
  br label %150

150:                                              ; preds = %149
  br label %151

151:                                              ; preds = %150
  %152 = load i64, ptr @H5E_ATTR_g, align 8
  %153 = load i64, ptr @H5E_CLOSEERROR_g, align 8
  %154 = call i32 (ptr, ptr, i32, i64, i64, ptr, ...) @H5E_printf_stack(ptr noundef @.str.3, ptr noundef @__func__.H5A__get_type, i32 noundef 1036, i64 noundef %152, i64 noundef %153, ptr noundef @.str.47)
  br label %155

155:                                              ; preds = %151
  store i8 1, ptr %5, align 1
  %156 = load i8, ptr %5, align 1
  %157 = trunc i8 %156 to i1
  %158 = zext i1 %157 to i8
  store i8 %158, ptr %5, align 1
  br label %159

159:                                              ; preds = %155
  store i64 -1, ptr %4, align 8
  br label %160

160:                                              ; preds = %159
  br label %161

161:                                              ; preds = %160, %144, %141
  br label %162

162:                                              ; preds = %161, %138
  %163 = load i64, ptr %4, align 8
  ret i64 %163
}