; Function Attrs: nounwind uwtable
define range(i64 -1, -9223372036854775808) i64 @H5A__get_type(ptr nocapture noundef readonly %0) local_unnamed_addr #0 {
  %2 = getelementptr inbounds i8, ptr %0, i64 96
  %3 = load ptr, ptr %2, align 8
  %4 = getelementptr inbounds i8, ptr %3, i64 24
  %5 = load ptr, ptr %4, align 8
  %6 = getelementptr inbounds i8, ptr %0, i64 40
  %7 = load ptr, ptr %6, align 8
  %8 = tail call i32 @H5T_patch_file(ptr noundef %5, ptr noundef %7) #13
  %9 = icmp slt i32 %8, 0
  br i1 %9, label %10, label %14

10:                                               ; preds = %1
  %11 = load i64, ptr @H5E_ATTR_g, align 8
  %12 = load i64, ptr @H5E_CANTINIT_g, align 8
  %13 = tail call i32 (ptr, ptr, i32, i64, i64, ptr, ...) @H5E_printf_stack(ptr noundef nonnull @.str.3, ptr noundef nonnull @__func__.H5A__get_type, i32 noundef 1002, i64 noundef %11, i64 noundef %12, ptr noundef nonnull @.str.42) #13
  br label %.thread

14:                                               ; preds = %1
  %15 = load ptr, ptr %2, align 8
  %16 = getelementptr inbounds i8, ptr %15, i64 24
  %17 = load ptr, ptr %16, align 8
  %18 = tail call ptr @H5T_copy_reopen(ptr noundef %17) #13
  %19 = icmp eq ptr %18, null
  br i1 %19, label %20, label %24

20:                                               ; preds = %14
  %21 = load i64, ptr @H5E_ATTR_g, align 8
  %22 = load i64, ptr @H5E_CANTINIT_g, align 8
  %23 = tail call i32 (ptr, ptr, i32, i64, i64, ptr, ...) @H5E_printf_stack(ptr noundef nonnull @.str.3, ptr noundef nonnull @__func__.H5A__get_type, i32 noundef 1009, i64 noundef %21, i64 noundef %22, ptr noundef nonnull @.str.43) #13
  br label %.thread

24:                                               ; preds = %14
  %25 = tail call i32 @H5T_set_loc(ptr noundef nonnull %18, ptr noundef null, i32 noundef 1) #13
  %26 = icmp slt i32 %25, 0
  br i1 %26, label %27, label %31

27:                                               ; preds = %24
  %28 = load i64, ptr @H5E_DATATYPE_g, align 8
  %29 = load i64, ptr @H5E_CANTINIT_g, align 8
  %30 = tail call i32 (ptr, ptr, i32, i64, i64, ptr, ...) @H5E_printf_stack(ptr noundef nonnull @.str.3, ptr noundef nonnull @__func__.H5A__get_type, i32 noundef 1013, i64 noundef %28, i64 noundef %29, ptr noundef nonnull @.str.15) #13
  br label %54

31:                                               ; preds = %24
  %32 = tail call i32 @H5T_lock(ptr noundef nonnull %18, i1 noundef zeroext false) #13
  %33 = icmp slt i32 %32, 0
  br i1 %33, label %34, label %38

34:                                               ; preds = %31
  %35 = load i64, ptr @H5E_DATATYPE_g, align 8
  %36 = load i64, ptr @H5E_CANTINIT_g, align 8
  %37 = tail call i32 (ptr, ptr, i32, i64, i64, ptr, ...) @H5E_printf_stack(ptr noundef nonnull @.str.3, ptr noundef nonnull @__func__.H5A__get_type, i32 noundef 1017, i64 noundef %35, i64 noundef %36, ptr noundef nonnull @.str.44) #13
  br label %54

38:                                               ; preds = %31
  %39 = tail call i32 @H5T_is_named(ptr noundef nonnull %18) #13
  %.not = icmp eq i32 %39, 0
  br i1 %.not, label %47, label %40

40:                                               ; preds = %38
  %41 = tail call i64 @H5VL_wrap_register(i32 noundef 3, ptr noundef nonnull %18, i1 noundef zeroext true) #13
  %42 = icmp slt i64 %41, 0
  br i1 %42, label %43, label %.thread

43:                                               ; preds = %40
  %44 = load i64, ptr @H5E_ID_g, align 8
  %45 = load i64, ptr @H5E_CANTREGISTER_g, align 8
  %46 = tail call i32 (ptr, ptr, i32, i64, i64, ptr, ...) @H5E_printf_stack(ptr noundef nonnull @.str.3, ptr noundef nonnull @__func__.H5A__get_type, i32 noundef 1026, i64 noundef %44, i64 noundef %45, ptr noundef nonnull @.str.45) #13
  br label %54

47:                                               ; preds = %38
  %48 = tail call i64 @H5I_register(i32 noundef 3, ptr noundef nonnull %18, i1 noundef zeroext true) #13
  %49 = icmp slt i64 %48, 0
  br i1 %49, label %50, label %.thread

50:                                               ; preds = %47
  %51 = load i64, ptr @H5E_ID_g, align 8
  %52 = load i64, ptr @H5E_CANTREGISTER_g, align 8
  %53 = tail call i32 (ptr, ptr, i32, i64, i64, ptr, ...) @H5E_printf_stack(ptr noundef nonnull @.str.3, ptr noundef nonnull @__func__.H5A__get_type, i32 noundef 1030, i64 noundef %51, i64 noundef %52, ptr noundef nonnull @.str.46) #13
  br label %54

54:                                               ; preds = %27, %34, %43, %50
  %55 = tail call i32 @H5T_close(ptr noundef nonnull %18) #13
  %56 = icmp slt i32 %55, 0
  br i1 %56, label %57, label %.thread

57:                                               ; preds = %54
  %58 = load i64, ptr @H5E_ATTR_g, align 8
  %59 = load i64, ptr @H5E_CLOSEERROR_g, align 8
  %60 = tail call i32 (ptr, ptr, i32, i64, i64, ptr, ...) @H5E_printf_stack(ptr noundef nonnull @.str.3, ptr noundef nonnull @__func__.H5A__get_type, i32 noundef 1036, i64 noundef %58, i64 noundef %59, ptr noundef nonnull @.str.47) #13
  br label %.thread

.thread:                                          ; preds = %20, %10, %47, %40, %54, %57
  %.1 = phi i64 [ -1, %57 ], [ -1, %54 ], [ %48, %47 ], [ %41, %40 ], [ -1, %20 ], [ -1, %10 ]
  ret i64 %.1
}